target datalayout = "e-m:e-p270:32:32-p271:32:32-p272:64:64-i64:64-i128:128-f80:128-n8:16:32:64-S128"
target triple = "x86_64-pc-linux-gnu"

%"class.llvm::MCInst" = type { i32, i32, %"class.llvm::SMLoc", %"class.llvm::SmallVector" }
%"class.llvm::SMLoc" = type { ptr }
%"class.llvm::SmallVector" = type { %"class.llvm::SmallVectorImpl", %"struct.llvm::SmallVectorStorage" }
%"class.llvm::SmallVectorImpl" = type { %"class.llvm::SmallVectorTemplateBase" }
%"class.llvm::SmallVectorTemplateBase" = type { %"class.llvm::SmallVectorTemplateCommon" }
%"class.llvm::SmallVectorTemplateCommon" = type { %"class.llvm::SmallVectorBase" }
%"class.llvm::SmallVectorBase" = type { ptr, i32, i32 }
%"struct.llvm::SmallVectorStorage" = type { [96 x i8] }
%"class.llvm::MCOperand" = type { i8, %union.anon }
%union.anon = type { i64 }

; Function Attrs: mustprogress nounwind uwtable
define linkonce_odr hidden noundef ptr @_ZNK4llvm25SmallVectorTemplateCommonINS_9MCOperandEvE5beginEv(ptr noundef nonnull align 8 dereferenceable(16) %0) #0 comdat align 2 {
  %2 = alloca ptr, align 8
  store ptr %0, ptr %2, align 8
  %3 = load ptr, ptr %2, align 8
  %4 = getelementptr inbounds nuw %"class.llvm::SmallVectorBase", ptr %3, i32 0, i32 0
  %5 = load ptr, ptr %4, align 8
  ret ptr %5
}

; Function Attrs: mustprogress nounwind uwtable
define internal noundef i32 @_ZN4llvm10AArch64_AML13getExtendTypeEj(i32 noundef %0) #0 {
  %2 = alloca i32, align 4
  %3 = alloca i32, align 4
  store i32 %0, ptr %3, align 4
  %4 = load i32, ptr %3, align 4
  switch i32 %4, label %5 [
    i32 0, label %6
    i32 1, label %7
    i32 2, label %8
    i32 3, label %9
    i32 4, label %10
    i32 5, label %11
    i32 6, label %12
    i32 7, label %13
  ]

5:                                                ; preds = %1
  unreachable

6:                                                ; preds = %1
  store i32 5, ptr %2, align 4
  br label %14

7:                                                ; preds = %1
  store i32 6, ptr %2, align 4
  br label %14

8:                                                ; preds = %1
  store i32 7, ptr %2, align 4
  br label %14

9:                                                ; preds = %1
  store i32 8, ptr %2, align 4
  br label %14

10:                                               ; preds = %1
  store i32 9, ptr %2, align 4
  br label %14

11:                                               ; preds = %1
  store i32 10, ptr %2, align 4
  br label %14

12:                                               ; preds = %1
  store i32 11, ptr %2, align 4
  br label %14

13:                                               ; preds = %1
  store i32 12, ptr %2, align 4
  br label %14

14:                                               ; preds = %13, %12, %11, %10, %9, %8, %7, %6
  %15 = load i32, ptr %2, align 4
  ret i32 %15
}

; Function Attrs: mustprogress nounwind uwtable
define linkonce_odr hidden noundef nonnull align 8 dereferenceable(16) ptr @_ZNK4llvm25SmallVectorTemplateCommonINS_9MCOperandEvEixEm(ptr noundef nonnull align 8 dereferenceable(16) %0, i64 noundef %1) #0 comdat align 2 {
  %3 = alloca ptr, align 8
  %4 = alloca i64, align 8
  store ptr %0, ptr %3, align 8
  store i64 %1, ptr %4, align 8
  %5 = load ptr, ptr %3, align 8
  %6 = call noundef ptr @_ZNK4llvm25SmallVectorTemplateCommonINS_9MCOperandEvE5beginEv(ptr noundef nonnull align 8 dereferenceable(16) %5)
  %7 = load i64, ptr %4, align 8
  %8 = getelementptr inbounds %"class.llvm::MCOperand", ptr %6, i64 %7
  ret ptr %8
}

; Function Attrs: mustprogress nounwind uwtable
define internal noundef i32 @_ZN4llvm10AArch64_AML12getShiftTypeEj(i32 noundef %0) #0 {
  %2 = alloca i32, align 4
  %3 = alloca i32, align 4
  store i32 %0, ptr %3, align 4
  %4 = load i32, ptr %3, align 4
  %5 = lshr i32 %4, 6
  %6 = and i32 %5, 7
  switch i32 %6, label %7 [
    i32 0, label %8
    i32 1, label %9
    i32 2, label %10
    i32 3, label %11
    i32 4, label %12
  ]

7:                                                ; preds = %1
  store i32 -1, ptr %2, align 4
  br label %13

8:                                                ; preds = %1
  store i32 0, ptr %2, align 4
  br label %13

9:                                                ; preds = %1
  store i32 1, ptr %2, align 4
  br label %13

10:                                               ; preds = %1
  store i32 2, ptr %2, align 4
  br label %13

11:                                               ; preds = %1
  store i32 3, ptr %2, align 4
  br label %13

12:                                               ; preds = %1
  store i32 4, ptr %2, align 4
  br label %13

13:                                               ; preds = %12, %11, %10, %9, %8, %7
  %14 = load i32, ptr %2, align 4
  ret i32 %14
}

; Function Attrs: mustprogress nounwind uwtable
define internal noundef i32 @_ZN4llvm10AArch64_AML13getShiftValueEj(i32 noundef %0) #0 {
  %2 = alloca i32, align 4
  store i32 %0, ptr %2, align 4
  %3 = load i32, ptr %2, align 4
  %4 = and i32 %3, 63
  ret i32 %4
}

; Function Attrs: mustprogress nounwind uwtable
define internal noundef i32 @_ZN4llvm10AArch64_AML18getArithExtendTypeEj(i32 noundef %0) #0 {
  %2 = alloca i32, align 4
  store i32 %0, ptr %2, align 4
  %3 = load i32, ptr %2, align 4
  %4 = lshr i32 %3, 3
  %5 = and i32 %4, 7
  %6 = call noundef i32 @_ZN4llvm10AArch64_AML13getExtendTypeEj(i32 noundef %5)
  ret i32 %6
}

; Function Attrs: mustprogress nounwind uwtable
define internal noundef i32 @_ZN4llvm10AArch64_AML18getArithShiftValueEj(i32 noundef %0) #0 {
  %2 = alloca i32, align 4
  store i32 %0, ptr %2, align 4
  %3 = load i32, ptr %2, align 4
  %4 = and i32 %3, 7
  ret i32 %4
}

; Function Attrs: mustprogress nounwind uwtable
define linkonce_odr hidden noundef i64 @_ZNK4llvm9MCOperand6getImmEv(ptr noundef nonnull align 8 dereferenceable(16) %0) #0 comdat align 2 {
  %2 = alloca ptr, align 8
  store ptr %0, ptr %2, align 8
  %3 = load ptr, ptr %2, align 8
  %4 = getelementptr inbounds nuw %"class.llvm::MCOperand", ptr %3, i32 0, i32 1
  %5 = load i64, ptr %4, align 8
  ret i64 %5
}

; Function Attrs: mustprogress nounwind uwtable
define linkonce_odr hidden noundef nonnull align 8 dereferenceable(16) ptr @_ZNK4llvm6MCInst10getOperandEj(ptr noundef nonnull align 8 dereferenceable(128) %0, i32 noundef %1) #0 comdat align 2 {
  %3 = alloca ptr, align 8
  %4 = alloca i32, align 4
  store ptr %0, ptr %3, align 8
  store i32 %1, ptr %4, align 4
  %5 = load ptr, ptr %3, align 8
  %6 = getelementptr inbounds nuw %"class.llvm::MCInst", ptr %5, i32 0, i32 3
  %7 = load i32, ptr %4, align 4
  %8 = zext i32 %7 to i64
  %9 = call noundef nonnull align 8 dereferenceable(16) ptr @_ZNK4llvm25SmallVectorTemplateCommonINS_9MCOperandEvEixEm(ptr noundef nonnull align 8 dereferenceable(16) %6, i64 noundef %8)
  ret ptr %9
}

; Function Attrs: mustprogress nounwind uwtable
define linkonce_odr hidden noundef i32 @_ZNK4llvm6MCInst9getOpcodeEv(ptr noundef nonnull align 8 dereferenceable(128) %0) #0 comdat align 2 {
  %2 = alloca ptr, align 8
  store ptr %0, ptr %2, align 8
  %3 = load ptr, ptr %2, align 8
  %4 = getelementptr inbounds nuw %"class.llvm::MCInst", ptr %3, i32 0, i32 0
  %5 = load i32, ptr %4, align 8
  ret i32 %5
}

; Function Attrs: mustprogress nounwind uwtable
define dso_local noundef zeroext i1 @_ZN4llvm10AArch64_MC17isExynosArithFastERKNS_6MCInstE(ptr noundef nonnull align 8 dereferenceable(128) %0) #0 {
  %2 = alloca i1, align 1
  %3 = alloca ptr, align 8
  store ptr %0, ptr %3, align 8
  %4 = load ptr, ptr %3, align 8
  %5 = call noundef i32 @_ZNK4llvm6MCInst9getOpcodeEv(ptr noundef nonnull align 8 dereferenceable(128) %4)
  switch i32 %5, label %97 [
    i32 1464, label %6
    i32 1467, label %6
    i32 1449, label %6
    i32 1452, label %6
    i32 6860, label %6
    i32 6863, label %6
    i32 6853, label %6
    i32 6856, label %6
    i32 1468, label %6
    i32 1453, label %6
    i32 6864, label %6
    i32 6857, label %6
    i32 1463, label %54
    i32 1466, label %54
    i32 1448, label %54
    i32 1451, label %54
    i32 6859, label %54
    i32 6862, label %54
    i32 6852, label %54
    i32 6855, label %54
    i32 306, label %95
    i32 307, label %95
    i32 302, label %95
    i32 303, label %95
    i32 1176, label %95
    i32 1177, label %95
    i32 1174, label %95
    i32 1175, label %95
    i32 1462, label %96
    i32 1465, label %96
    i32 1447, label %96
    i32 1450, label %96
    i32 6858, label %96
    i32 6861, label %96
    i32 6851, label %96
    i32 6854, label %96
  ]

6:                                                ; preds = %1, %1, %1, %1, %1, %1, %1, %1, %1, %1, %1, %1
  %7 = load ptr, ptr %3, align 8
  %8 = call noundef nonnull align 8 dereferenceable(16) ptr @_ZNK4llvm6MCInst10getOperandEj(ptr noundef nonnull align 8 dereferenceable(128) %7, i32 noundef 3)
  %9 = call noundef i64 @_ZNK4llvm9MCOperand6getImmEv(ptr noundef nonnull align 8 dereferenceable(16) %8)
  %10 = trunc i64 %9 to i32
  %11 = call noundef i32 @_ZN4llvm10AArch64_AML18getArithShiftValueEj(i32 noundef %10)
  %12 = icmp eq i32 %11, 0
  br i1 %12, label %52, label %13

13:                                               ; preds = %6
  %14 = load ptr, ptr %3, align 8
  %15 = call noundef nonnull align 8 dereferenceable(16) ptr @_ZNK4llvm6MCInst10getOperandEj(ptr noundef nonnull align 8 dereferenceable(128) %14, i32 noundef 3)
  %16 = call noundef i64 @_ZNK4llvm9MCOperand6getImmEv(ptr noundef nonnull align 8 dereferenceable(16) %15)
  %17 = trunc i64 %16 to i32
  %18 = call noundef i32 @_ZN4llvm10AArch64_AML18getArithExtendTypeEj(i32 noundef %17)
  %19 = icmp eq i32 %18, 7
  br i1 %19, label %27, label %20

20:                                               ; preds = %13
  %21 = load ptr, ptr %3, align 8
  %22 = call noundef nonnull align 8 dereferenceable(16) ptr @_ZNK4llvm6MCInst10getOperandEj(ptr noundef nonnull align 8 dereferenceable(128) %21, i32 noundef 3)
  %23 = call noundef i64 @_ZNK4llvm9MCOperand6getImmEv(ptr noundef nonnull align 8 dereferenceable(16) %22)
  %24 = trunc i64 %23 to i32
  %25 = call noundef i32 @_ZN4llvm10AArch64_AML18getArithExtendTypeEj(i32 noundef %24)
  %26 = icmp eq i32 %25, 8
  br i1 %26, label %27, label %50

27:                                               ; preds = %20, %13
  %28 = load ptr, ptr %3, align 8
  %29 = call noundef nonnull align 8 dereferenceable(16) ptr @_ZNK4llvm6MCInst10getOperandEj(ptr noundef nonnull align 8 dereferenceable(128) %28, i32 noundef 3)
  %30 = call noundef i64 @_ZNK4llvm9MCOperand6getImmEv(ptr noundef nonnull align 8 dereferenceable(16) %29)
  %31 = trunc i64 %30 to i32
  %32 = call noundef i32 @_ZN4llvm10AArch64_AML18getArithShiftValueEj(i32 noundef %31)
  %33 = icmp eq i32 %32, 1
  br i1 %33, label %48, label %34

34:                                               ; preds = %27
  %35 = load ptr, ptr %3, align 8
  %36 = call noundef nonnull align 8 dereferenceable(16) ptr @_ZNK4llvm6MCInst10getOperandEj(ptr noundef nonnull align 8 dereferenceable(128) %35, i32 noundef 3)
  %37 = call noundef i64 @_ZNK4llvm9MCOperand6getImmEv(ptr noundef nonnull align 8 dereferenceable(16) %36)
  %38 = trunc i64 %37 to i32
  %39 = call noundef i32 @_ZN4llvm10AArch64_AML18getArithShiftValueEj(i32 noundef %38)
  %40 = icmp eq i32 %39, 2
  br i1 %40, label %48, label %41

41:                                               ; preds = %34
  %42 = load ptr, ptr %3, align 8
  %43 = call noundef nonnull align 8 dereferenceable(16) ptr @_ZNK4llvm6MCInst10getOperandEj(ptr noundef nonnull align 8 dereferenceable(128) %42, i32 noundef 3)
  %44 = call noundef i64 @_ZNK4llvm9MCOperand6getImmEv(ptr noundef nonnull align 8 dereferenceable(16) %43)
  %45 = trunc i64 %44 to i32
  %46 = call noundef i32 @_ZN4llvm10AArch64_AML18getArithShiftValueEj(i32 noundef %45)
  %47 = icmp eq i32 %46, 3
  br label %48

48:                                               ; preds = %41, %34, %27
  %49 = phi i1 [ true, %34 ], [ true, %27 ], [ %47, %41 ]
  br label %50

50:                                               ; preds = %48, %20
  %51 = phi i1 [ false, %20 ], [ %49, %48 ]
  br label %52

52:                                               ; preds = %50, %6
  %53 = phi i1 [ true, %6 ], [ %51, %50 ]
  store i1 %53, ptr %2, align 1
  br label %98

54:                                               ; preds = %1, %1, %1, %1, %1, %1, %1, %1
  %55 = load ptr, ptr %3, align 8
  %56 = call noundef nonnull align 8 dereferenceable(16) ptr @_ZNK4llvm6MCInst10getOperandEj(ptr noundef nonnull align 8 dereferenceable(128) %55, i32 noundef 3)
  %57 = call noundef i64 @_ZNK4llvm9MCOperand6getImmEv(ptr noundef nonnull align 8 dereferenceable(16) %56)
  %58 = trunc i64 %57 to i32
  %59 = call noundef i32 @_ZN4llvm10AArch64_AML13getShiftValueEj(i32 noundef %58)
  %60 = icmp eq i32 %59, 0
  br i1 %60, label %93, label %61

61:                                               ; preds = %54
  %62 = load ptr, ptr %3, align 8
  %63 = call noundef nonnull align 8 dereferenceable(16) ptr @_ZNK4llvm6MCInst10getOperandEj(ptr noundef nonnull align 8 dereferenceable(128) %62, i32 noundef 3)
  %64 = call noundef i64 @_ZNK4llvm9MCOperand6getImmEv(ptr noundef nonnull align 8 dereferenceable(16) %63)
  %65 = trunc i64 %64 to i32
  %66 = call noundef i32 @_ZN4llvm10AArch64_AML12getShiftTypeEj(i32 noundef %65)
  %67 = icmp eq i32 %66, 0
  br i1 %67, label %68, label %91

68:                                               ; preds = %61
  %69 = load ptr, ptr %3, align 8
  %70 = call noundef nonnull align 8 dereferenceable(16) ptr @_ZNK4llvm6MCInst10getOperandEj(ptr noundef nonnull align 8 dereferenceable(128) %69, i32 noundef 3)
  %71 = call noundef i64 @_ZNK4llvm9MCOperand6getImmEv(ptr noundef nonnull align 8 dereferenceable(16) %70)
  %72 = trunc i64 %71 to i32
  %73 = call noundef i32 @_ZN4llvm10AArch64_AML13getShiftValueEj(i32 noundef %72)
  %74 = icmp eq i32 %73, 1
  br i1 %74, label %89, label %75

75:                                               ; preds = %68
  %76 = load ptr, ptr %3, align 8
  %77 = call noundef nonnull align 8 dereferenceable(16) ptr @_ZNK4llvm6MCInst10getOperandEj(ptr noundef nonnull align 8 dereferenceable(128) %76, i32 noundef 3)
  %78 = call noundef i64 @_ZNK4llvm9MCOperand6getImmEv(ptr noundef nonnull align 8 dereferenceable(16) %77)
  %79 = trunc i64 %78 to i32
  %80 = call noundef i32 @_ZN4llvm10AArch64_AML13getShiftValueEj(i32 noundef %79)
  %81 = icmp eq i32 %80, 2
  br i1 %81, label %89, label %82

82:                                               ; preds = %75
  %83 = load ptr, ptr %3, align 8
  %84 = call noundef nonnull align 8 dereferenceable(16) ptr @_ZNK4llvm6MCInst10getOperandEj(ptr noundef nonnull align 8 dereferenceable(128) %83, i32 noundef 3)
  %85 = call noundef i64 @_ZNK4llvm9MCOperand6getImmEv(ptr noundef nonnull align 8 dereferenceable(16) %84)
  %86 = trunc i64 %85 to i32
  %87 = call noundef i32 @_ZN4llvm10AArch64_AML13getShiftValueEj(i32 noundef %86)
  %88 = icmp eq i32 %87, 3
  br label %89

89:                                               ; preds = %82, %75, %68
  %90 = phi i1 [ true, %75 ], [ true, %68 ], [ %88, %82 ]
  br label %91

91:                                               ; preds = %89, %61
  %92 = phi i1 [ false, %61 ], [ %90, %89 ]
  br label %93

93:                                               ; preds = %91, %54
  %94 = phi i1 [ true, %54 ], [ %92, %91 ]
  store i1 %94, ptr %2, align 1
  br label %98

95:                                               ; preds = %1, %1, %1, %1, %1, %1, %1, %1
  store i1 true, ptr %2, align 1
  br label %98

96:                                               ; preds = %1, %1, %1, %1, %1, %1, %1, %1
  store i1 true, ptr %2, align 1
  br label %98

97:                                               ; preds = %1
  store i1 false, ptr %2, align 1
  br label %98

98:                                               ; preds = %97, %96, %95, %93, %52
  %99 = load i1, ptr %2, align 1
  ret i1 %99
}