; Function Attrs: mustprogress nofree norecurse nosync nounwind willreturn memory(read, inaccessiblemem: none) uwtable
define dso_local noundef zeroext i1 @_ZN4llvm10AArch64_MC17isExynosArithFastERKNS_6MCInstE(ptr noundef nonnull readonly align 8 captures(none) dereferenceable(128) %0) local_unnamed_addr #0 {
  %2 = load i32, ptr %0, align 8
  switch i32 %2, label %23 [
    i32 1464, label %3
    i32 1467, label %3
    i32 1449, label %3
    i32 1452, label %3
    i32 6860, label %3
    i32 6863, label %3
    i32 6853, label %3
    i32 6856, label %3
    i32 1468, label %3
    i32 1453, label %3
    i32 6864, label %3
    i32 6857, label %3
    i32 1463, label %13
    i32 1466, label %13
    i32 1448, label %13
    i32 1451, label %13
    i32 6859, label %13
    i32 6862, label %13
    i32 6852, label %13
    i32 6855, label %13
    i32 306, label %_ZN4llvm10AArch64_AML18getArithExtendTypeEj.exit15.thread
    i32 307, label %_ZN4llvm10AArch64_AML18getArithExtendTypeEj.exit15.thread
    i32 302, label %_ZN4llvm10AArch64_AML18getArithExtendTypeEj.exit15.thread
    i32 303, label %_ZN4llvm10AArch64_AML18getArithExtendTypeEj.exit15.thread
    i32 1176, label %_ZN4llvm10AArch64_AML18getArithExtendTypeEj.exit15.thread
    i32 1177, label %_ZN4llvm10AArch64_AML18getArithExtendTypeEj.exit15.thread
    i32 1174, label %_ZN4llvm10AArch64_AML18getArithExtendTypeEj.exit15.thread
    i32 1175, label %_ZN4llvm10AArch64_AML18getArithExtendTypeEj.exit15.thread
    i32 1462, label %_ZN4llvm10AArch64_AML18getArithExtendTypeEj.exit15.thread
    i32 1465, label %_ZN4llvm10AArch64_AML18getArithExtendTypeEj.exit15.thread
    i32 1447, label %_ZN4llvm10AArch64_AML18getArithExtendTypeEj.exit15.thread
    i32 1450, label %_ZN4llvm10AArch64_AML18getArithExtendTypeEj.exit15.thread
    i32 6858, label %_ZN4llvm10AArch64_AML18getArithExtendTypeEj.exit15.thread
    i32 6861, label %_ZN4llvm10AArch64_AML18getArithExtendTypeEj.exit15.thread
    i32 6851, label %_ZN4llvm10AArch64_AML18getArithExtendTypeEj.exit15.thread
    i32 6854, label %_ZN4llvm10AArch64_AML18getArithExtendTypeEj.exit15.thread
  ]

3:                                                ; preds = %1, %1, %1, %1, %1, %1, %1, %1, %1, %1, %1, %1
  %4 = getelementptr inbounds nuw i8, ptr %0, i64 16
  %5 = load ptr, ptr %4, align 8
  %6 = getelementptr inbounds nuw i8, ptr %5, i64 56
  %7 = load i64, ptr %6, align 8
  %8 = trunc i64 %7 to i32
  %9 = and i32 %8, 7
  %10 = icmp eq i32 %9, 0
  br i1 %10, label %_ZN4llvm10AArch64_AML18getArithExtendTypeEj.exit15.thread, label %11

11:                                               ; preds = %3
  %12 = and i32 %8, 48
  %switch = icmp eq i32 %12, 16
  %switch26 = icmp samesign ult i32 %9, 4
  %spec.select = select i1 %switch, i1 %switch26, i1 false
  br label %_ZN4llvm10AArch64_AML18getArithExtendTypeEj.exit15.thread

13:                                               ; preds = %1, %1, %1, %1, %1, %1, %1, %1
  %14 = getelementptr inbounds nuw i8, ptr %0, i64 16
  %15 = load ptr, ptr %14, align 8
  %16 = getelementptr inbounds nuw i8, ptr %15, i64 56
  %17 = load i64, ptr %16, align 8
  %18 = trunc i64 %17 to i32
  %19 = and i32 %18, 63
  %20 = icmp eq i32 %19, 0
  br i1 %20, label %_ZN4llvm10AArch64_AML18getArithExtendTypeEj.exit15.thread, label %21

21:                                               ; preds = %13
  %22 = and i32 %18, 448
  %cond = icmp eq i32 %22, 0
  %switch28 = icmp samesign ult i32 %19, 4
  %spec.select30 = select i1 %cond, i1 %switch28, i1 false
  br label %_ZN4llvm10AArch64_AML18getArithExtendTypeEj.exit15.thread

23:                                               ; preds = %1
  br label %_ZN4llvm10AArch64_AML18getArithExtendTypeEj.exit15.thread

_ZN4llvm10AArch64_AML18getArithExtendTypeEj.exit15.thread: ; preds = %21, %11, %1, %1, %1, %1, %1, %1, %1, %1, %1, %1, %1, %1, %1, %1, %1, %1, %13, %3, %23
  %.0 = phi i1 [ false, %23 ], [ true, %3 ], [ true, %13 ], [ true, %1 ], [ true, %1 ], [ true, %1 ], [ true, %1 ], [ true, %1 ], [ true, %1 ], [ true, %1 ], [ true, %1 ], [ true, %1 ], [ true, %1 ], [ true, %1 ], [ true, %1 ], [ true, %1 ], [ true, %1 ], [ true, %1 ], [ true, %1 ], [ %spec.select, %11 ], [ %spec.select30, %21 ]
  ret i1 %.0
}